(dp1
S'limited'
p2
I1058
sS'hats'
p3
I1036
sS'saves'
p4
I1511
sS'sleek'
p5
I247
sS'four'
p6
I20
sS'martinis'
p7
I1721
sS'hate'
p8
I203
sS'forget'
p9
I606
sS'stinks'
p10
I829
sS'paris'
p11
I1431
sS'whatsoever'
p12
I1516
sS'under'
p13
I2332
sS'worth'
p14
I377
sS'@'
I1946
sS'chennai'
p15
I1513
sS'definetly'
p16
I1718
sS'every'
p17
I182
sS'figs'
p18
I94
sS'messy'
p19
I1012
sS'month'
p20
I1439
sS'bringing'
p21
I159
sS'prize'
p22
I852
sS'wooden'
p23
I1521
sS'clientele'
p24
I2279
sS'solid'
p25
I2302
sS'chips-good'
p26
I2127
sS'super-fresh'
p27
I519
sS'ups'
p28
I1064
sS'clothes'
p29
I796
sS'enjoy'
p30
I330
sS'bill'
p31
I1444
sS'tired'
p32
I2238
sS'food-awesome'
p33
I281
sS'japanese'
p34
I346
sS'chef'
p35
I751
sS'elegant'
p36
I1256
sS'second'
p37
I740
sS'louder'
p38
I1192
sS'huffing'
p39
I2329
sS'even'
p40
I485
sS'mascarpone'
p41
I2126
sS'saved'
p42
I2376
sS'cooking'
p43
I1562
sS'liberty'
p44
I1869
sS'wouldnt'
p45
I1488
sS'haze'
p46
I253
sS'above'
p47
I1199
sS'new'
p48
I184
sS'tips'
p49
I1618
sS'reluctant'
p50
I1769
sS'ever'
p51
I207
sS'disney'
p52
I1334
sS'told'
p53
I339
sS'curry'
p54
I1390
sS'pancakes'
p55
I1027
sS'herb'
p56
I1717
sS'never'
p57
I40
sS'here'
p58
I181
sS'path'
p59
I459
sS'100'
p60
I841
sS'quite'
p61
I241
sS'mozzarella'
p62
I822
sS'dry'
p63
I137
sS'kids'
p64
I567
sS'over-priced'
p65
I1593
sS'items'
p66
I1774
sS'leaves'
p67
I300
sS'changed'
p68
I1984
sS'proportioned'
p69
I367
sS'frendly'
p70
I2049
sS'stressed'
p71
I1653
sS'spotty'
p72
I1455
sS'settled'
p73
I1674
sS'fantastic'
p74
I628
sS'slices'
p75
I2237
sS'highly'
p76
I707
sS'brought'
p77
I41
sS'non-veg'
p78
I1453
sS'guests'
p79
I699
sS'charge'
p80
I1831
sS'spoke'
p81
I2120
sS'would'
p82
I437
sS'roll..'
p83
I724
sS'watering'
p84
I1316
sS'negative'
p85
I1232
sS'music'
p86
I1257
sS'calm'
p87
I1678
sS'recommend'
p88
I403
sS'strike'
p89
I1940
sS'survive'
p90
I1619
sS'type'
p91
I982
sS'tell'
p92
I889
sS'sushi'
p93
I353
sS'relax'
p94
I1136
sS'award'
p95
I1276
sS'aware'
p96
I1309
sS'warn'
p97
I1849
sS'glass'
p98
I598
sS'warm'
p99
I555
sS'former'
p100
I1855
sS'excellent'
p101
I192
sS'recommand'
p102
I2320
sS'off-'
p103
I2336
sS'must'
p104
I844
sS'me'
p105
I65
sS'bartender'
p106
I2097
sS'room'
p107
I1254
sS'baluchi'
p108
I2301
sS'work'
p109
I605
sS'entertained'
p110
I987
sS'deficiencies'
p111
I1220
sS'laid-back'
p112
I1941
sS'my'
p113
I198
sS'decorative'
p114
I2093
sS'vodka'
p115
I2343
sS'give'
p116
I1075
sS'foods'
p117
I1559
sS'want'
p118
I783
sS'cantonese'
p119
I2235
sS'boths'
p120
I950
sS'times'
p121
I76
sS'end'
p122
I631
sS'returning'
p123
I1246
sS'frites'
p124
I1765
sS'confit'
p125
I88
sS'how'
p126
I505
sS'hot'
p127
I1044
sS'yum'
p128
I1436
sS'ordinary'
p129
I1028
sS'preparing'
p130
I2266
sS'pizza'
p131
I481
sS'badly'
p132
I1902
sS'funny'
p133
I1911
sS'mess'
p134
I794
sS'after'
p135
I61
sS'amanzing'
p136
I2044
sS'wrong'
p137
I180
sS'overdone'
p138
I1228
sS'types'
p139
I1742
sS'thinly-sliced'
p140
I1477
sS'third'
p141
I2080
sS'amid'
p142
I2220
sS'maintain'
p143
I918
sS'upside'
p144
I1210
sS'things'
p145
I787
sS'oysters'
p146
I172
sS'order'
p147
I940
sS'wine'
p148
I97
sS'afterwards'
p149
I2354
sS'selecion'
p150
I2148
sS'over'
p151
I535
sS'satisfied'
p152
I1392
sS'murray'
p153
I1880
sS'awful'
p154
I1884
sS'oven'
p155
I2027
sS'innovative'
p156
I226
sS'japan'
p157
I1370
sS'before'
p158
I127
sS'fit'
p159
I1130
sS'somewhere'
p160
I1235
sS'fix'
p161
I676
sS','
I11
sS'writing'
p162
I1153
sS'better'
p163
I878
sS'quater'
p164
I1447
sS'understated'
p165
I195
sS'differently'
p166
I1639
sS'receipies'
p167
I1243
sS'hidden'
p168
I978
sS'split'
p169
I2210
sS'then'
p170
I274
sS'them'
p171
I36
sS'thin-crust'
p172
I1711
sS'combination'
p173
I518
sS'band'
p174
I957
sS'roommate'
p175
I2216
sS'effects'
p176
I1335
sS'they'
p177
I37
sS'glazed'
p178
I1403
sS'yourself'
p179
I449
sS'bread'
p180
I697
sS'meat'
p181
I1515
sS'potatoes'
p182
I811
sS'reasonably'
p183
I1650
sS'crunchy'
p184
I663
sS'l'
I1117
sS'rocks'
p185
I1460
sS'filling'
p186
I470
sS'reasonable'
p187
I448
sS'each'
p188
I1073
sS'went'
p189
I153
sS'rosemary'
p190
I1225
sS'meal'
p191
I959
sS'bone'
p192
I1323
sS'mean'
p193
I1498
sS'i/we'
p194
I149
sS'hanger'
p195
I1143
sS'roxy'
p196
I1684
sS'braised'
p197
I2007
sS'57th'
p198
I1194
sS'milan'
p199
I2118
sS'used'
p200
I5
sS'turnip'
p201
I2000
sS'forgot'
p202
I1500
sS'saturday'
p203
I376
sS'hand-painted'
p204
I2138
sS'day-'
p205
I424
sS'volare'
p206
I1298
sS'heavenly'
p207
I356
sS'surprise'
p208
I991
sS'grease'
p209
I1839
sS'free'
p210
I1955
sS'delightfully'
p211
I1954
sS'fixe'
p212
I394
sS'wanted'
p213
I1095
sS'greasy'
p214
I145
sS'enormous'
p215
I1356
sS'ate'
p216
I714
sS'inexpensive'
p217
I1054
sS'takeout'
p218
I1074
sS'lousy'
p219
I54
sS'speedy'
p220
I2248
sS'cucumber'
p221
I1874
sS'unappreciative'
p222
I834
sS'loud'
p223
I147
sS'chopped'
p224
I1020
sS'not-so-frequent'
p225
I2369
sS'already'
p226
I1287
sS'vittorio'
p227
I2367
sS'features'
p228
I1526
sS'grade'
p229
I1665
sS'lettuce'
p230
I1049
sS'ofr'
p231
I1752
sS'another'
p232
I570
sS'robust'
p233
I1927
sS'hear'
p234
I1677
sS'tamarind'
p235
I1451
sS'raucous'
p236
I1997
sS'rated'
p237
I1474
sS'service'
p238
I170
sS'spinach'
p239
I1828
sS'top'
p240
I348
sS'girls'
p241
I2316
sS'reuben'
p242
I2154
sS'plentiful'
p243
I2109
sS'listed'
p244
I255
sS'tom'
p245
I1705
sS'bitter'
p246
I1123
sS'consistent'
p247
I1097
sS'ceiling'
p248
I239
sS'canned'
p249
I1827
sS'serve'
p250
I215
sS'took'
p251
I372
sS'nearing'
p252
I1509
sS'atmoshpere'
p253
I610
sS'task'
p254
I2350
sS'frankly'
p255
I1469
sS'hike'
p256
I2085
sS'crave'
p257
I1888
sS'seated'
p258
I2282
sS'preparation'
p259
I1253
sS'matter'
p260
I665
sS'street'
p261
I84
sS'mermaid'
p262
I1536
sS'minus'
p263
I2277
sS'vegatables'
p264
I938
sS'rao'
p265
I2040
sS'modern'
p266
I248
sS'mind'
p267
I1024
sS'mine'
p268
I1118
sS'ginger'
p269
I2011
sS'spent'
p270
I2314
sS'raw'
p271
I937
sS'vomit-inducing'
p272
I1824
sS'seen'
p273
I1173
sS'seem'
p274
I1367
sS'mint'
p275
I2191
sS'runned'
p276
I1646
sS'relatively'
p277
I2296
sS'udon'
p278
I1901
sS'thoroughly'
p279
I1709
sS'-'
I26
sS'situated'
p280
I1410
sS'recommended'
p281
I688
sS'defiantly'
p282
I1158
sS'blue'
p283
I1572
sS'nobody'
p284
I2019
sS'though'
p285
I900
sS'thrilled'
p286
I1630
sS'courtesey'
p287
I2092
sS'mashed'
p288
I1817
sS'welll'
p289
I748
sS'8.00'
p290
I744
sS'regular'
p291
I1048
sS'mouth'
p292
I303
sS'dissapoints'
p293
I2149
sS'thougt'
p294
I989
sS'soupy'
p295
I1569
sS'definitely'
p296
I820
sS'unfriendly'
p297
I2255
sS'sum'
p298
I925
sS'came'
p299
I129
sS'beaten'
p300
I2311
sS'overpriced'
p301
I496
sS'penang'
p302
I1032
sS'prix'
p303
I393
sS'stepping'
p304
I389
sS'subtle'
p305
I1105
sS'enjoyed'
p306
I218
sS'toast'
p307
I2029
sS'busy'
p308
I321
sS'quaint'
p309
I1046
sS'menu'
p310
I395
sS'weekends'
p311
I586
sS'sugar'
p312
I48
sS'theme'
p313
I2106
sS'rich'
p314
I2187
sS'heartily'
p315
I402
sS'adequate'
p316
I1906
sS'rice'
p317
I116
sS'personality'
p318
I2305
sS'lady'
p319
I1966
sS'do'
p320
I288
sS'dj'
p321
I1967
sS'stop'
p322
I792
sS'appetizer'
p323
I267
sS'candle-light'
p324
I1411
sS'despite'
p325
I1379
sS'nasty'
p326
I1499
sS'chutney'
p327
I1847
sS'bar'
p328
I767
sS'twice'
p329
I1438
sS'bad'
p330
I301
sS'favors'
p331
I1930
sS'grilled'
p332
I220
sS'steak'
p333
I673
sS'saul'
p334
I74
sS'blew'
p335
I2364
sS'fair'
p336
I1217
sS'seabass'
p337
I2175
sS'w/'
p338
I2178
sS'fluffy'
p339
I1006
sS'decided'
p340
I2217
sS'reviewer'
p341
I701
sS'miserable'
p342
I2256
sS'terrine'
p343
I92
sS'noodles'
p344
I43
sS'alternative'
p345
I1999
sS'best'
p346
I81
sS'said'
p347
I736
sS'lots'
p348
I1040
sS'away'
p349
I122
sS'gentleman'
p350
I1634
sS'continually'
p351
I409
sS'ess-a-bagel'
p352
I1352
sS'mid-town'
p353
I870
sS'we'
p354
I17
sS'terms'
p355
I1115
sS'off-the-beaten'
p356
I458
sS'wo'
p357
I1166
sS'aesthetic'
p358
I1943
sS'however'
p359
I298
sS'blasted'
p360
I1912
sS'kitchen'
p361
I428
sS'faced'
p362
I1896
sS'country'
p363
I1177
sS'jelly'
p364
I1567
sS'against'
p365
I1519
sS'hummus'
p366
I1506
sS'casimir'
p367
I1649
sS'pita'
p368
I1505
sS'uni'
p369
I886
sS'requests'
p370
I46
sS'freshest'
p371
I1731
sS'asked'
p372
I110
sS'lanterna'
p373
I2366
sS'self-respect'
p374
I309
sS'winnie'
p375
I1920
sS'character'
p376
I2337
sS'wait-staff'
p377
I2291
sS'2nd'
p378
I2299
sS'tons'
p379
I799
sS'trust'
p380
I338
sS'speak'
p381
I1191
sS'bathroom'
p382
I779
sS'particulary'
p383
I1670
sS'beef'
p384
I1164
sS'union'
p385
I923
sS'frist'
p386
I1013
sS'binge'
p387
I157
sS'three'
p388
I126
sS'tiny'
p389
I60
sS'.'
I16
sS'beer'
p390
I1134
sS'much'
p391
I408
sS'basic'
p392
I553
sS'expected'
p393
I612
sS'fry'
p394
I1571
sS'dozens'
p395
I564
sS'incompetent'
p396
I1605
sS'threw'
p397
I49
sS'life'
p398
I512
sS'families'
p399
I1242
sS'suan'
p400
I1970
sS'relaxing'
p401
I856
sS'taxan'
p402
I1384
sS'substance'
p403
I1851
sS'personally'
p404
I1840
sS'exception'
p405
I1312
sS'has'
p406
I100
sS'diggest..'
p407
I2351
sS'heartland'
p408
I2101
sS'tastes'
p409
I694
sS'near'
p410
I1974
sS'melted'
p411
I358
sS'suppose'
p412
I645
sS'stopping'
p413
I2359
sS'balance'
p414
I970
sS'inspired'
p415
I1804
sS'skiline'
p416
I2317
sS'jamun'
p417
I1761
sS'dumplings'
p418
I651
sS'is'
p419
I77
sS'dumped'
p420
I1208
sS'it'
p421
I165
sS'upscale'
p422
I966
sS'in'
p423
I85
sS'if'
p424
I415
sS'anti-pasta'
p425
I2082
sS'bottles'
p426
I1284
sS'overpack'
p427
I371
sS'make'
p428
I186
sS'spectacular'
p429
I1657
sS'8pm'
p430
I2193
sS'drawback'
p431
I2028
sS'patient'
p432
I623
sS'belly'
p433
I902
sS'plates'
p434
I1207
sS'several'
p435
I948
sS'couple'
p436
I1708
sS'european'
p437
I1600
sS'fairly'
p438
I749
sS'hang'
p439
I1148
sS'evil'
p440
I1604
sS'hand'
p441
I887
sS'delight'
p442
I764
sS'someting'
p443
I2347
sS'characters'
p444
I1340
sS'tuna'
p445
I260
sS'hopping'
p446
I1169
sS'okay-i'
p447
I1023
sS'drip'
p448
I1838
sS'tho'
p449
I234
sS'burgers'
p450
I1690
sS'greatest'
p451
I644
sS'mother'
p452
I729
sS'excellent-the'
p453
I1170
sS'the'
p454
I27
sS'smoked'
p455
I1801
sS'left'
p456
I795
sS'seasonal'
p457
I1594
sS'just'
p458
I120
sS'gods'
p459
I1421
sS'thumbs'
p460
I1161
sS'lassi'
p461
I2197
sS'yes'
p462
I498
sS'yet'
p463
I471
sS'previous'
p464
I2
sS'mix'
p465
I1740
sS'thick'
p466
I1627
sS'had'
p467
I123
sS'shout'
p468
I1258
sS'menu-fare'
p469
I1397
sS'east'
p470
I548
sS'gave'
p471
I2062
sS'shabu-shabu'
p472
I1368
sS'mayo'
p473
I1017
sS'jekyll'
p474
I802
sS'fusion'
p475
I211
sS'discreet'
p476
I1925
sS'judge'
p477
I289
sS'apart'
p478
I1692
sS'unique'
p479
I1725
sS'burnt'
p480
I1119
sS'mileau'
p481
I1648
sS'sliced'
p482
I1908
sS'flavoring'
p483
I1227
sS'gift'
p484
I1552
sS'50'
p485
I815
sS'overrated'
p486
I494
sS'sparse'
p487
I1326
sS'night'
p488
I233
sS'meats'
p489
I2253
sS'right'
p490
I507
sS'old'
p491
I1339
sS'deal'
p492
I375
sS'people'
p493
I604
sS'somehow'
p494
I595
sS'unnecessary'
p495
I1787
sS'tradional'
p496
I1336
sS'for'
p497
I47
sS'purple'
p498
I252
sS'phenomenal'
p499
I624
sS'ice'
p500
I1730
sS'creative'
p501
I1796
sS'everything'
p502
I189
sS'asking'
p503
I316
sS'maitre'
p504
I730
sS'hollondaise'
p505
I1494
sS'walkup'
p506
I2335
sS'bisque'
p507
I1270
sS'tartar'
p508
I1236
sS'paid'
p509
I1783
sS'dissapointment'
p510
I2123
sS'memorable'
p511
I1328
sS'super'
p512
I2190
sS'proceed'
p513
I2265
sS'benches'
p514
I1522
sS'ribs'
p515
I2133
sS'months'
p516
I1983
sS'o'
I166
sS'dinner'
p517
I781
sS'dined'
p518
I703
sS'plus'
p519
I1053
sS'afternoon'
p520
I847
sS'emilio'
p521
I1418
sS'slightly'
p522
I362
sS'whats'
p523
I2039
sS"'ino"
p524
I1577
sS'soh'
p525
I2245
sS'soo'
p526
I1703
sS'son'
p527
I1685
sS'down'
p528
I272
sS'soy'
p529
I1480
sS'grabbed'
p530
I1611
sS'wan'
p531
I864
sS'yawn'
p532
I2037
sS'america'
p533
I1614
sS'crowd'
p534
I385
sS'pre-sliced'
p535
I2254
sS'amazingly'
p536
I1160
sS'bukhara'
p537
I1459
sS'gig'
p538
I1998
sS'trendi'
p539
I1701
sS'editor'
p540
I1187
sS'way'
p541
I476
sS'call'
p542
I2242
sS'was'
p543
I28
sS'happy'
p544
I994
sS'head'
p545
I2158
sS'offering'
p546
I1489
sS'snowy'
p547
I1181
sS'some'
p548
I510
sS'gorgeous'
p549
I1942
sS'waitstaffs'
p550
I1483
sS'true'
p551
I943
sS'portions'
p552
I59
sS'inside'
p553
I634
sS'blantently'
p554
I833
sS'bargain'
p555
I1581
sS'nicest'
p556
I1172
sS'sapphire'
p557
I2152
sS'servings'
p558
I2066
sS'unusually'
p559
I262
sS'seafood'
p560
I514
sS'apppetizers'
p561
I1872
sS'expresso'
p562
I1229
sS'sticks'
p563
I830
sS'classic'
p564
I2155
sS'drive'
p565
I545
sS'calzones'
p566
I1822
sS'not-so-little'
p567
I2368
sS'single-handedly'
p568
I2078
sS'tea'
p569
I2284
sS'kha'
p570
I1706
sS'mediocre'
p571
I1780
sS'annoying'
p572
I2032
sS'trip'
p573
I167
sS'pomodori'
p574
I574
sS'no'
p575
I786
sS'accomodating'
p576
I1092
sS'when'
p577
I601
sS'handed'
p578
I1209
sS'ny'
p579
I384
sS'setting'
p580
I711
sS'test'
p581
I2233
sS'smell'
p582
I1826
sS'roll'
p583
I261
sS"'s"
p584
I299
sS'why'
p585
I1473
sS'felt'
p586
I1096
sS'diet'
p587
I1893
sS'transported'
p588
I1407
sS"'d"
p589
I706
sS'russe'
p590
I1663
sS"'m"
p591
I329
sS'pizzas'
p592
I1778
sS'died'
p593
I271
sS'tristate'
p594
I534
sS'apology'
p595
I2286
sS'potato'
p596
I2064
sS'manhattanite'
p597
I2272
sS'together'
p598
I1366
sS'jacket'
p599
I791
sS'taste-i'
p600
I1699
sS'time'
p601
I183
sS'stick'
p602
I2153
sS'managed'
p603
I596
sS'regulars'
p604
I2073
sS'reviewers'
p605
I713
sS'roe'
p606
I1802
sS'silverware'
p607
I789
sS'manager'
p608
I1094
sS'understandable'
p609
I1640
sS'certainly'
p610
I776
sS'yummy'
p611
I609
sS'fritte'
p612
I1110
sS'disgusting'
p613
I656
sS'finally'
p614
I128
sS'pulitzer'
p615
I851
sS'icing'
p616
I2124
sS'made'
p617
I256
sS'bedford'
p618
I1715
sS'thawed'
p619
I1147
sS'choice'
p620
I1735
sS'stays'
p621
I1428
sS'trouble'
p622
I593
sS'cool'
p623
I194
sS'dim'
p624
I1675
sS'mahi'
p625
I1813
sS'impressive'
p626
I473
sS'presented'
p627
I763
sS'did'
p628
I336
sS'die'
p629
I664
sS'posts'
p630
I3
sS'suprised'
p631
I2005
sS'standards'
p632
I1996
sS'specials'
p633
I540
sS'solved'
p634
I2079
sS'quick'
p635
I1347
sS'sidewalk'
p636
I813
sS'upper'
p637
I962
sS'pork'
p638
I139
sS'tremendously'
p639
I2344
sS'says'
p640
I1881
sS'regret'
p641
I2016
sS'seasoning'
p642
I1905
sS'sigh'
p643
I1346
sS'cost'
p644
I1736
sS'decour'
p645
I911
sS'gigondas'
p646
I683
sS'steake'
p647
I1109
sS'rough'
p648
I968
sS'gnocchi'
p649
I581
sS'drinks'
p650
I747
sS'tartare'
p651
I674
sS'heaviness'
p652
I2346
sS'unheralded'
p653
I1859
sS'current'
p654
I1623
sS'health'
p655
I1565
sS'goes'
p656
I306
sS'shared'
p657
I2056
sS'filled'
p658
I909
sS'tortelini'
p659
I996
sS'french'
p660
I467
sS'water'
p661
I318
sS'alone'
p662
I2077
sS'noir'
p663
I1601
sS'along'
p664
I307
sS'appears'
p665
I2306
sS'change'
p666
I1672
sS'wait'
p667
I201
sS'thirty'
p668
I1631
sS'brilliant'
p669
I475
sS'wherever'
p670
I2249
sS'atomosphere'
p671
I2116
sS'exemplifies'
p672
I2361
sS'usually'
p673
I144
sS'weird'
p674
I1224
sS'entrees'
p675
I1320
sS'genuinely'
p676
I963
sS'teenage'
p677
I566
sS'dissappointed'
p678
I1002
sS'extra'
p679
I2349
sS'1st'
p680
I881
sS'pony'
p681
I278
sS'flavors'
p682
I1926
sS'crammed'
p683
I1196
sS'working'
p684
I1211
sS'sake'
p685
I249
sS'angry'
p686
I572
sS'visit'
p687
I188
sS'thier'
p688
I992
sS'creamy'
p689
I361
sS'live'
p690
I955
sS'wood'
p691
I1791
sS'wonderfully'
p692
I1432
sS'msg'
p693
I1561
sS'shooed'
p694
I2285
sS'introducing'
p695
I773
sS'sharing'
p696
I1189
sS'lawns'
p697
I1866
sS'pour-your-own'
p698
I2089
sS'chocolate'
p699
I1089
sS'downtown'
p700
I2060
sS'beers'
p701
I769
sS'far'
p702
I575
sS'effort'
p703
I245
sS'yelling'
p704
I1617
sS'pumkin'
p705
I995
sS'edible'
p706
I1222
sS'tokyo'
p707
I1375
sS'boarderline'
p708
I1487
sS'reviews'
p709
I613
sS'soup'
p710
I469
sS'sour'
p711
I2213
sS'values'
p712
I101
sS'can'
p713
I104
sS'co-workers'
p714
I1091
sS'following'
p715
I1557
sS'making'
p716
I2257
sS'arrive'
p717
I941
sS'heart'
p718
I296
sS'awesome'
p719
I266
sS'potatos'
p720
I1818
sS'sample'
p721
I1924
sS'heard'
p722
I1713
sS'chin'
p723
I2114
sS'dropped'
p724
I788
sS'allowed'
p725
I1608
sS'chic'
p726
I2221
sS'pink'
p727
I277
sS'winter'
p728
I1179
sS'watching'
p729
I814
sS'after-theatre'
p730
I2096
sS'lounge'
p731
I757
sS'beat'
p732
I179
sS'sunday'
p733
I846
sS'nyc'
p734
I690
sS'speaks'
p735
I1250
sS'may'
p736
I685
sS'muttering'
p737
I2331
sS'spot'
p738
I280
sS'unobtrusive'
p739
I1259
sS'cooked-to-perfection'
p740
I1949
sS'birthday'
p741
I619
sS'mad'
p742
I1141
sS'mai'
p743
I141
sS'such'
p744
I797
sS'guys'
p745
I1784
sS'muggy'
p746
I1127
sS'remember'
p747
I1810
sS'whenever'
p748
I1349
sS'6th'
p749
I817
sS'tapas'
p750
I2250
sS'corona'
p751
I2112
sS'so'
p752
I163
sS'se'
p753
I2009
sS'typical'
p754
I1198
sS'drunken'
p755
I1568
sS'cute'
p756
I965
sS'serving'
p757
I1799
sS'indeed'
p758
I1641
sS'years'
p759
I537
sS'ended'
p760
I168
sS'terrace'
p761
I669
sS'cold'
p762
I483
sS'still'
p763
I490
sS'group'
p764
I618
sS'thank'
p765
I772
sS'interesting'
p766
I99
sS'bagels'
p767
I877
sS'appetizers'
p768
I2041
sS'amazing'
p769
I89
sS'attraction'
p770
I758
sS'window'
p771
I2322
sS'offers'
p772
I516
sS'celebrate'
p773
I1656
sS'model/waitress'
p774
I1620
sS'policy'
p775
I305
sS'main'
p776
I2067
sS'instantly'
p777
I893
sS"'special"
p778
I2051
sS'thalia'
p779
I1798
sS'lunch'
p780
I436
sS'half'
p781
I374
sS'not'
p782
I13
sS'feature'
p783
I1979
sS'bgel'
p784
I2298
sS'now'
p785
I1985
sS'hall'
p786
I912
sS'wont'
p787
I1484
sS'name'
p788
I661
sS'opera'
p789
I2185
sS'drop'
p790
I2261
sS'food-quality'
p791
I1412
sS'outrageously'
p792
I80
sS'rock'
p793
I263
sS'square'
p794
I924
sS'summer-eat'
p795
I1978
sS'*not*'
p796
I1182
sS'year'
p797
I1338
sS'happen'
p798
I304
sS'morning'
p799
I1895
sS'salads'
p800
I1037
sS'adequately'
p801
I366
sS'tried'
p802
I898
sS'waitstaff'
p803
I542
sS'space'
p804
I2206
sS'furthermore'
p805
I1904
sS'looking'
p806
I251
sS'attracted'
p807
I382
sS'seriously'
p808
I1856
sS'cobb'
p809
I958
sS'suggesting'
p810
I1756
sS'pizzeria'
p811
I1237
sS'correct'
p812
I2042
sS'shows'
p813
I806
sS'earlier'
p814
I1292
sS'octopus'
p815
I2055
sS'tempura'
p816
I265
sS'ocasionally'
p817
I934
sS'cart'
p818
I111
sS'walnuts'
p819
I1050
sS'oasis'
p820
I869
sS'besides'
p821
I1809
sS'card'
p822
I1551
sS'care'
p823
I621
sS'selections'
p824
I1454
sS'waiter'
p825
I312
sS'retrieving'
p826
I2264
sS'amma'
p827
I1449
sS'thing'
p828
I214
sS'place'
p829
I10
sS'pepperoni'
p830
I1435
sS'think'
p831
I341
sS'waited'
p832
I600
sS'first'
p833
I647
sS'exotic'
p834
I761
sS'cheese'
p835
I484
sS'saving'
p836
I1932
sS'one'
p837
I492
sS'clumsy'
p838
I2295
sS'mignon'
p839
I1156
sS'fast'
p840
I603
sS'fornino'
p841
I1240
sS'impossible'
p842
I1863
sS'open'
p843
I679
sS'size'
p844
I1357
sS'city'
p845
I636
sS'little'
p846
I308
sS'district'
p847
I866
sS'ceviche'
p848
I1739
sS'bloom'
p849
I2156
sS'bite'
p850
I1351
sS'plastic'
p851
I1503
sS'anyone'
p852
I1245
sS'2'
I1271
sS'stuffed'
p853
I2355
sS'friend'
p854
I848
sS'gives'
p855
I2047
sS'eyes'
p856
I1315
sS'that'
p857
I63
sS'patis'
p858
I1101
sS'ridiculous'
p859
I527
sS'fooled'
p860
I1882
sS'thai'
p861
I210
sS'than'
p862
I143
sS'specify'
p863
I430
sS'boyfriend'
p864
I790
sS'10'
p865
I1464
sS'13'
p866
I1417
sS'jeckll'
p867
I1342
sS'15'
p868
I1695
sS'14'
p869
I1696
sS'18'
p870
I1060
sS'whom'
p871
I561
sS'midtown'
p872
I892
sS'venture'
p873
I2110
sS'were'
p874
I19
sS'spicy-'
p875
I431
sS'gigantic'
p876
I2140
sS'sophia'
p877
I1779
sS'and'
p878
I30
sS'coconut'
p879
I1976
sS'tasted'
p880
I1125
sS'exceeded'
p881
I2141
sS'voices'
p882
I916
sS'say'
p883
I204
sS'saw'
p884
I1263
sS'any'
p885
I14
sS'sat'
p886
I602
sS'offer'
p887
I446
sS'terrific'
p888
I404
sS'dining'
p889
I840
sS'take'
p890
I698
sS'interior'
p891
I1007
sS'green'
p892
I1389
sS'wonder'
p893
I2038
sS'begin'
p894
I1624
sS'sure'
p895
I607
sS'cheesecake'
p896
I1682
sS'price'
p897
I102
sS'knew'
p898
I1553
sS'buffet'
p899
I1679
sS'importantly'
p900
I1456
sS'stormed'
p901
I1615
sS'actors'
p902
I807
sS'queens'
p903
I2268
sS'forever'
p904
I1429
sS'especially'
p905
I1302
sS'surprising'
p906
I1681
sS'average'
p907
I208
sS'hurley'
p908
I659
sS'hungry'
p909
I413
sS'sunset'
p910
I1871
sS'soho'
p911
I2362
sS'shut-down'
p912
I2025
sS'hoboken'
p913
I1667
sS'professional'
p914
I863
sS'salt'
p915
I231
sS'quantity'
p916
I400
sS'pans'
p917
I2324
sS'walking'
p918
I1068
sS'lotus'
p919
I113
sS'mains'
p920
I2083
sS'cheap'
p921
I824
sS'inconsistent'
p922
I1986
sS'corner'
p923
I2004
sS'tend'
p924
I352
sS'calamari'
p925
I1626
sS'maine'
p926
I1273
sS'cheeseburgers'
p927
I1687
sS'obligated'
p928
I2258
sS'slow'
p929
I429
sS'cheeseburger'
p930
I861
sS'3'
I154
sS'only'
p931
I216
sS'going'
p932
I351
sS'.both'
p933
I1083
sS'carozza'
p934
I1425
sS'pastrami'
p935
I523
sS'get'
p936
I397
sS'jazz'
p937
I956
sS'truly'
p938
I867
sS'nearly'
p939
I1543
sS'melt-in-your-mouth'
p940
I906
sS'clerks'
p941
I1853
sS'gem'
p942
I550
sS'prime'
p943
I1279
sS'lollies'
p944
I1929
sS'prima'
p945
I290
sS'attitude'
p946
I2327
sS'absurdly'
p947
I2289
sS'worried'
p948
I592
sS'dough'
p949
I2241
sS'finishing'
p950
I1694
sS'unappealing'
p951
I1361
sS'where'
p952
I173
sS'husband'
p953
I988
sS'ignored'
p954
I44
sS'imposing'
p955
I34
sS'seat'
p956
I584
sS'famine'
p957
I2081
sS'college'
p958
I1973
sS'custards'
p959
I2003
sS'concern'
p960
I1563
sS'fails'
p961
I2026
sS'review'
p962
I1154
sS'enough'
p963
I398
sS'grammercy'
p964
I1795
sS'across'
p965
I479
sS'edamame'
p966
I222
sS'affordable'
p967
I1162
sS'come'
p968
I176
sS'undermine'
p969
I2348
sS'dates'
p970
I1768
sS'many'
p971
I75
sS'gimmicks'
p972
I1249
sS'quiet'
p973
I855
sS'personal'
p974
I1716
sS's'
I1467
sS'patrons'
p975
I1661
sS'disappointment'
p976
I509
sS'pureed'
p977
I224
sS'comes'
p978
I578
sS'flavorless'
p979
I1145
sS'pot'
p980
I859
sS'expectations'
p981
I2142
sS'cancel'
p982
I780
sS'constant'
p983
I1212
sS'crew'
p984
I1921
sS'considering'
p985
I897
sS'save'
p986
I1448
sS'unusual'
p987
I521
sS'cares'
p988
I1574
sS'west'
p989
I2276
sS'vacation'
p990
I1047
sS'mark'
p991
I1555
sS'cared'
p992
I1767
sS'judging'
p993
I0
sS'ravioli'
p994
I727
sS'wants'
p995
I1664
sS'tasteless'
p996
I1834
sS'with'
p997
I93
sS'offered'
p998
I1724
sS'dramatic'
p999
I2328
sS'foggy'
p1000
I2318
sS'attentive'
p1001
I284
sS'weeks'
p1002
I1633
sS'those'
p1003
I653
sS'sound'
p1004
I1234
sS'myself'
p1005
I2119
sS'these'
p1006
I1844
sS'might'
p1007
I1129
sS'shanty'
p1008
I1962
sS'snacks'
p1009
I1933
sS'cash'
p1010
I1310
sS'resturant'
p1011
I1362
sS"n't"
p1012
I178
sS'warning'
p1013
I1797
sS'editorial'
p1014
I1185
sS'pastas'
p1015
I2188
sS'ive'
p1016
I109
sS'bathrooms'
p1017
I979
sS'appetizing'
p1018
I1759
sS'coffee'
p1019
I1894
sS'couples'
p1020
I2182
sS'usha'
p1021
I2194
sS'evening'
p1022
I381
sS'ambient'
p1023
I1163
sS'different'
p1024
I718
sS'pay'
p1025
I1142
sS'lava'
p1026
I451
sS'check'
p1027
I319
sS'pad'
p1028
I1031
sS'uncourteous'
p1029
I1642
sS'stepped'
p1030
I738
sS'frequented'
p1031
I1576
sS'pam'
p1032
I1039
sS'week'
p1033
I1293
sS'finish'
p1034
I657
sS'hydes'
p1035
I1343
sS'companion'
p1036
I478
sS'cheers'
p1037
I660
sS'delicate'
p1038
I2200
sS'statue'
p1039
I1868
sS'disapointing'
p1040
I2373
sS'totally'
p1041
I543
sS'complained'
p1042
I64
sS'theater'
p1043
I858
sS'floor'
p1044
I2263
sS'without'
p1045
I525
sS'veal'
p1046
I2076
sS'bottle'
p1047
I1281
sS'amazed'
p1048
I538
sS'summer'
p1049
I2139
sS'outdoor'
p1050
I812
sS'steamed'
p1051
I1993
sS'being'
p1052
I526
sS'generally'
p1053
I929
sS'rest'
p1054
I1149
sS'abrupt'
p1055
I1745
sS'touch'
p1056
I1931
sS'flavor'
p1057
I617
sS'weekly'
p1058
I2072
sS'cassuolet'
p1059
I1108
sS'japenese'
p1060
I1794
sS'downright'
p1061
I1643
sS'mcdonald'
p1062
I1638
sS'rose'
p1063
I357
sS'seems'
p1064
I715
sS'except'
p1065
I1248
sS'lets'
p1066
I1668
sS'9:30'
p1067
I269
sS'4'
I1318
sS'moules'
p1068
I725
sS'extensive'
p1069
I250
sS'real'
p1070
I1052
sS'no-so-fresh'
p1071
I1476
sS'around'
p1072
I268
sS'kills'
p1073
I243
sS'read'
p1074
I614
sS'dark'
p1075
I1159
sS'traffic'
p1076
I1193
sS'mom'
p1077
I728
sS'world'
p1078
I96
sS'postal'
p1079
I2307
sS'disappointed'
p1080
I108
sS'pizzaria'
p1081
I827
sS'margheritta'
p1082
I1917
sS'overhyped'
p1083
I1022
sS'greeting'
p1084
I1635
sS'server'
p1085
I808
sS'panchetta'
p1086
I1120
sS't'
I1344
sS'fully'
p1087
I486
sS'served'
p1088
I885
sS'seating'
p1089
I931
sS'moving'
p1090
I1918
sS'lobster'
p1091
I726
sS'moreover'
p1092
I1968
sS'divine'
p1093
I1277
sS'redeeming'
p1094
I1218
sS'gross'
p1095
I2172
sS'slice'
p1096
I1821
sS'atmoshere'
p1097
I1919
sS'manhatten'
p1098
I2157
sS'noon'
p1099
I25
sS'footing'
p1100
I2225
sS'overly'
p1101
I472
sS'gulab'
p1102
I1760
sS'hipster'
p1103
I1936
sS'provides'
p1104
I709
sS'forks'
p1105
I1504
sS'moderate'
p1106
I1393
sS'turkey'
p1107
I1897
sS'soho/village/upper'
p1108
I2275
sS'roast'
p1109
I2001
sS'business'
p1110
I835
sS'intimate'
p1111
I710
sS'ration'
p1112
I368
sS'awsome'
p1113
I1461
sS'wong'
p1114
I1063
sS'thailand'
p1115
I641
sS'medicore'
p1116
I798
sS'cheff'
p1117
I2046
sS'on'
p1118
I35
sS'ok'
p1119
I930
sS'oh'
p1120
I2104
sS'of'
p1121
I21
sS'paninis'
p1122
I1583
sS'favorite'
p1123
I576
sS'side'
p1124
I627
sS'pistachio'
p1125
I1729
sS'fell'
p1126
I1691
sS'oz'
p1127
I1272
sS'chow'
p1128
I135
sS'ow'
p1129
I2243
sS'luck'
p1130
I2215
sS'or'
p1131
I57
sS'advanatage'
p1132
I373
sS'8.50'
p1133
I1960
sS'quietly'
p1134
I1255
sS'gari'
p1135
I639
sS'non-intrusive'
p1136
I896
sS'clams'
p1137
I2054
sS'lively'
p1138
I556
sS'parties'
p1139
I585
sS'33..'
p1140
I1886
sS'happening'
p1141
I2059
sS'your'
p1142
I244
sS'bubbly'
p1143
I1282
sS'breath'
p1144
I2333
sS'fill'
p1145
I933
sS'her'
p1146
I125
sS'area'
p1147
I347
sS'unisex'
p1148
I1654
sS'removing'
p1149
I1493
sS'there'
p1150
I18
sS'lol'
p1151
I2356
sS'desert'
p1152
I2180
sS'start'
p1153
I1200
sS'low'
p1154
I1433
sS'lot'
p1155
I649
sS'lox'
p1156
I1359
sS'spicy'
p1157
I259
sS'complete'
p1158
I2303
sS'tranquility'
p1159
I392
sS'peaceful'
p1160
I1864
sS'jus'
p1161
I1772
sS'implies'
p1162
I2129
sS'trying'
p1163
I1190
sS'vindaloo'
p1164
I1297
sS'spice'
p1165
I920
sS'rush'
p1166
I1441
sS'raga'
p1167
I759
sS'romantic'
p1168
I760
sS'tripe'
p1169
I1111
sS'bucket'
p1170
I2345
sS'strawberry'
p1171
I1805
sS'toilet'
p1172
I785
sS'palate'
p1173
I1585
sS'money'
p1174
I1510
sS'taste'
p1175
I302
sS'certain'
p1176
I464
sS'describe'
p1177
I1233
sS'moved'
p1178
I777
sS'deep'
p1179
I2240
sS'an'
p1180
I441
sS'as'
p1181
I175
sS'tasty'
p1182
I227
sS'at'
p1183
I24
sS'girlfriend'
p1184
I1167
sS'watched'
p1185
I2259
sS'operation'
p1186
I1647
sS'cream'
p1187
I1011
sS'again'
p1188
I152
sS'stumbled'
p1189
I774
sS'bored'
p1190
I327
sS'rubber'
p1191
I1144
sS'5'
I1319
sS'you'
p1192
I103
sS'tagliatelle'
p1193
I2122
sS'poor'
p1194
I865
sS'requested'
p1195
I131
sS'branzino'
p1196
I1321
sS'students'
p1197
I1975
sS'includes'
p1198
I310
sS'herbs'
p1199
I971
sS'important'
p1200
I1348
sS'unattractive'
p1201
I1837
sS'included'
p1202
I1738
sS'resembled'
p1203
I2125
sS'wife'
p1204
I528
sS'3-6'
p1205
I1072
sS'trattoria'
p1206
I1396
sS'u'
I1479
sS'platter'
p1207
I1507
sS'original'
p1208
I883
sS'all'
p1209
I62
sS'consider'
p1210
I477
sS'chinese'
p1211
I2012
sS'dollar'
p1212
I1915
sS'devine'
p1213
I171
sS'parmesan'
p1214
I1590
sS'dish'
p1215
I130
sS'kick-ass'
p1216
I2203
sS'porcini'
p1217
I1400
sS'hmmm'
p1218
I344
sS'toasting'
p1219
I1878
sS'whoever'
p1220
I2246
sS'dumpling'
p1221
I2374
sS'sashimi'
p1222
I655
sS'to'
p1223
I6
sS'th'
p1224
I276
sS'congee'
p1225
I1071
sS'smile'
p1226
I977
sS'enjoying'
p1227
I975
sS'paying'
p1228
I1446
sS'premium'
p1229
I1793
sS'sitting'
p1230
I784
sS'very'
p1231
I38
sS'fav'
p1232
I2195
sS'fat'
p1233
I905
sS'worst'
p1234
I1470
sS'decide'
p1235
I569
sS'got'
p1236
I345
sS'excpetiona'
p1237
I860
sS'heaven'
p1238
I890
sS'ranting'
p1239
I1295
sS'patroon'
p1240
I1525
sS'--'
p1241
I370
sS'list'
p1242
I98
sS'large'
p1243
I579
sS'adjust'
p1244
I742
sS'small'
p1245
I67
sS'neighborhood'
p1246
I577
sS'chinatown'
p1247
I1995
sS'tee'
p1248
I325
sS'past'
p1249
I1982
sS'zero'
p1250
I1363
sS'design'
p1251
I2169
sS'pass'
p1252
I1625
sS'further'
p1253
I379
sS'pretentious'
p1254
I2278
sS'casual'
p1255
I435
sS'cheeses'
p1256
I1358
sS'what'
p1257
I746
sS'opted'
p1258
I1084
sS'section'
p1259
I652
sS'crust'
p1260
I506
sS'anniversary'
p1261
I990
sS'cosette'
p1262
I456
sS'run'
p1263
I2013
sS'scallops'
p1264
I1539
sS'un-appetizing'
p1265
I242
sS'full'
p1266
I914
sS'unprofessional'
p1267
I1622
sS'answers'
p1268
I2021
sS'hours'
p1269
I2315
sS'sardines'
p1270
I1727
sS'i.e'
p1271
I314
sS'ahead'
p1272
I1289
sS'vegetarian'
p1273
I411
sS'experience'
p1274
I335
sS'amount'
p1275
I1712
sS'lasagna'
p1276
I2228
sS'pick'
p1277
I2297
sS'sushimi'
p1278
I1873
sS'options'
p1279
I872
sS'family'
p1280
I148
sS'virgins'
p1281
I2071
sS'trained'
p1282
I559
sS'eye'
p1283
I953
sS'takes'
p1284
I1969
sS'occassion'
p1285
I1305
sS'two'
p1286
I717
sS'6'
I407
sS'taken'
p1287
I620
sS'more'
p1288
I142
sS'diamond'
p1289
I967
sS'yuck'
p1290
I1825
sS'knows'
p1291
I504
sS'company'
p1292
I331
sS'excuse'
p1293
I1899
sS'basically'
p1294
I1443
sS'particular'
p1295
I1737
sS'known'
p1296
I1415
sS'glad'
p1297
I164
sS'town'
p1298
I1062
sS'grill'
p1299
I960
sS'hour'
p1300
I1744
sS'roosevelt'
p1301
I2281
sS'sudden'
p1302
I1887
sS'greeted'
p1303
I1753
sS'bruschettas'
p1304
I1582
sS'beautiful'
p1305
I1266
sS'prompt'
p1306
I625
sS'uppereast'
p1307
I2365
sS'share'
p1308
I146
sS'minimun'
p1309
I1916
sS'salty'
p1310
I58
sS'sense'
p1311
I1152
sS'hamburgers'
p1312
I1989
sS'!'
I70
sS'huge'
p1313
I530
sS'needs'
p1314
I1262
sS'rather'
p1315
I414
sS'comfort'
p1316
I1722
sS'menus'
p1317
I541
sS'freshly'
p1318
I695
sS'consistency-not'
p1319
I359
sS'stir'
p1320
I1570
sS'goat'
p1321
I1082
sS'sandwich'
p1322
I1501
sS'okay'
p1323
I132
sS'plans'
p1324
I1329
sS'rude'
p1325
I39
sS'advice'
p1326
I1000
sS'par'
p1327
I1452
sS'lighting'
p1328
I743
sS'fe'
p1329
I1019
sS'coming'
p1330
I546
sS'backyard'
p1331
I1171
sS'authentic'
p1332
I1137
sS'response'
p1333
I689
sS'a'
I8
sS'refuse'
p1334
I583
sS'short'
p1335
I597
sS'crowded'
p1336
I1078
sS'onto'
p1337
I1168
sS'eats'
p1338
I2043
sS'anytime'
p1339
I1330
sS'buns'
p1340
I1994
sS'perhaps'
p1341
I2267
sS'responsibility'
p1342
I2022
sS'halibut'
p1343
I1547
sS'overcooked'
p1344
I2050
sS'egg'
p1345
I2002
sS'patio'
p1346
I1676
sS'replied'
p1347
I118
sS'sooo'
p1348
I2168
sS'soon'
p1349
I1035
sS'isnt'
p1350
I1914
sS'through'
p1351
I998
sS'same'
p1352
I1607
sS'signs'
p1353
I539
sS'avenue'
p1354
I818
sS'its'
p1355
I240
sS'arrogant'
p1356
I2290
sS'24'
p1357
I1542
sS'style'
p1358
I1437
sS'20'
p1359
I1749
sS'sodium'
p1360
I1481
sS'pray'
p1361
I1427
sS'actually'
p1362
I662
sS'late'
p1363
I1747
sS'friendliest'
p1364
I1331
sS'pesto'
p1365
I1710
sS'sauce'
p1366
I615
sS'fool'
p1367
I1566
sS'wasabe'
p1368
I810
sS'good'
p1369
I9
sS'return'
p1370
I868
sS'generously'
p1371
I908
sS'seeking'
p1372
I333
sS'food'
p1373
I53
sS'trivialities'
p1374
I317
sS'foot'
p1375
I739
sS'complain'
p1376
I1042
sS'bigger'
p1377
I2163
sS'easily'
p1378
I2084
sS'everytime'
p1379
I568
sS'always'
p1380
I78
sS'someone'
p1381
I503
sS'stopped'
p1382
I1294
sS'found'
p1383
I775
sS'biscuits'
p1384
I1728
sS'downside'
p1385
I2325
sS'everyone'
p1386
I340
sS'england'
p1387
I1274
sS'delicious'
p1388
I522
sS'house'
p1389
I445
sS'fish'
p1390
I158
sS'hard'
p1391
I1903
sS'idea'
p1392
I442
sS'accidentally'
p1393
I2260
sS'oil'
p1394
I1589
sS'expect'
p1395
I1203
sS'haru'
p1396
I1465
sS'event'
p1397
I1061
sS'really'
p1398
I235
sS'8.95'
p1399
I1991
sS'it-especially'
p1400
I805
sS'missed'
p1401
I771
sS'wondered'
p1402
I935
sS'since'
p1403
I666
sS'tiramisu'
p1404
I1088
sS'yellowtail'
p1405
I1056
sS'7'
I1371
sS'brewery'
p1406
I2102
sS'ass'
p1407
I1858
sS'bistro'
p1408
I461
sS'liquers'
p1409
I2091
sS'definately'
p1410
I2136
sS'bass'
p1411
I1457
sS'pathetic'
p1412
I1707
sS'calzone'
p1413
I1829
sS'friday'
p1414
I270
sS'story'
p1415
I562
sS'pub'
p1416
I974
sS'pleasant'
p1417
I334
sS'imagine'
p1418
I1980
sS'ask'
p1419
I124
sS'attendant'
p1420
I112
sS'beginning'
p1421
I450
sS'owners'
p1422
I1238
sS'terrible'
p1423
I1606
sS'dine'
p1424
I1386
sS'dont'
p1425
I1602
sS'feel'
p1426
I315
sS'fancy'
p1427
I500
sS'feet'
p1428
I816
sS'done'
p1429
I489
sS'bland'
p1430
I432
sS'miss'
p1431
I964
sS'guess'
p1432
I1128
sS'guest'
p1433
I993
sS'benedict'
p1434
I1491
sS'st.'
p1435
I1014
sS'moderately'
p1436
I217
sS'least'
p1437
I1003
sS'scallion'
p1438
I1026
sS'wonderful'
p1439
I704
sS'banana'
p1440
I1743
sS'store'
p1441
I884
sS'too'
p1442
I55
sS'tramezzinis'
p1443
I1584
sS'park'
p1444
I1466
sS'hesititate'
p1445
I1595
sS'mmmm'
p1446
I1963
sS'luckily'
p1447
I2375
sS'part'
p1448
I680
sS'believe'
p1449
I293
sS'kind'
p1450
I1122
sS'recieved'
p1451
I2360
sS'i'
I71
sS'10-piece'
p1452
I2222
sS'stale'
p1453
I1468
sS'jem'
p1454
I1770
sS'treated'
p1455
I2074
sS'outta'
p1456
I1785
sS'service-'
p1457
I282
sS'outstanding'
p1458
I1669
sS'wasnt'
p1459
I2068
sS'antipasti'
p1460
I2108
sS'juice'
p1461
I1977
sS'blond'
p1462
I1790
sS'cleaned'
p1463
I1655
sS'rushing'
p1464
I1786
sS'orders'
p1465
I782
sS'sensual'
p1466
I174
sS'lie'
p1467
I1440
sS'nights'
p1468
I678
sS'depending'
p1469
I928
sS'self'
p1470
I1598
sS'lasagnas'
p1471
I2372
sS'also'
p1472
I369
sS'caesar'
p1473
I1080
sS'lip'
p1474
I2288
sS'sandwiches'
p1475
I1508
sS'korbett'
p1476
I1285
sS'play'
p1477
I854
sS'puree'
p1478
I223
sS'retired'
p1479
I1935
sS'eggs'
p1480
I1490
sS'measures'
p1481
I2090
sS'salmon'
p1482
I1671
sS'chart'
p1483
I444
sS'leave'
p1484
I2115
sS'most'
p1485
I493
sS'brooklyn'
p1486
I86
sS'experiences'
p1487
I705
sS'plan'
p1488
I1885
sS'eaten'
p1489
I73
sS'nothing'
p1490
I133
sS'adds'
p1491
I1377
sS'extremely'
p1492
I766
sS'oyster'
p1493
I156
sS'understands'
p1494
I2014
sS'sometimes'
p1495
I425
sS'cover'
p1496
I1178
sS'5-8'
p1497
I921
sS'traditional'
p1498
I910
sS'cramped'
p1499
I638
sS'clean'
p1500
I237
sS'notch'
p1501
I349
sS'institutions'
p1502
I1645
sS'chowder'
p1503
I1275
sS'particularly'
p1504
I942
sS'celebrities'
p1505
I2033
sS'diner'
p1506
I2294
sS'top-notch'
p1507
I1548
sS'fine'
p1508
I839
sS'find'
p1509
I337
sS'northern'
p1510
I1408
sS'unhappy'
p1511
I1558
sS'failed'
p1512
I565
sS'pretty'
p1513
I343
sS'factor'
p1514
I1219
sS'8'
I536
sS'hip'
p1515
I552
sS'palets'
p1516
I2234
sS'his'
p1517
I1686
sS'hit'
p1518
I642
sS'areo'
p1519
I2312
sS'feels'
p1520
I1374
sS'breast'
p1521
I196
sS'closely'
p1522
I1409
sS'combinations'
p1523
I765
sS'during'
p1524
I945
sS'him'
p1525
I1612
sS'devoured'
p1526
I1816
sS'glorified'
p1527
I2293
sS'cry'
p1528
I2128
sS'common'
p1529
I826
sS'hype'
p1530
I591
sS'river'
p1531
I439
sS'courteous'
p1532
I819
sS'restaurants'
p1533
I495
sS'set'
p1534
I1621
sS'art'
p1535
I1381
sS'bart'
p1536
I1015
sS'raddichio'
p1537
I1121
sS'see'
p1538
I850
sS'are'
p1539
I520
sS'sea'
p1540
I354
sS'tender'
p1541
I2057
sS'close'
p1542
I1197
sS'#'
I1947
sS'drumsticks'
p1543
I2212
sS'freindly'
p1544
I1599
sS'visiting'
p1545
I880
sS'wow'
p1546
I2117
sS'please'
p1547
I999
sS'exclaimed'
p1548
I1719
sS'mussels'
p1549
I1950
sS'probably'
p1550
I438
sS'champagne'
p1551
I684
sS'available'
p1552
I1879
sS'recently'
p1553
I1090
sS'guacamole+shrimp'
p1554
I1764
sS'missing'
p1555
I2176
sS'both'
p1556
I399
sS'last'
p1557
I199
sS'restaurant'
p1558
I82
sS'barely'
p1559
I1704
sS'became'
p1560
I894
sS'alot'
p1561
I1862
sS'forgotten'
p1562
I1702
sS'whole'
p1563
I809
sS'load'
p1564
I1010
sS'waitressing'
p1565
I1610
sS'liked'
p1566
I1043
sS'point'
p1567
I187
sS'simple'
p1568
I1099
sS'sweet'
p1569
I56
sS'acted'
p1570
I32
sS'whatever'
p1571
I1107
sS'rosa'
p1572
I2357
sS'scallop'
p1573
I723
sS'mussles'
p1574
I2173
sS'simply'
p1575
I388
sS'likes'
p1576
I985
sS'village'
p1577
I549
sS'crispy'
p1578
I1354
sS'expensive'
p1579
I611
sS'souffle'
p1580
I1401
sS'raise'
p1581
I915
sS'duo'
p1582
I2247
sS'create'
p1583
I842
sS'rivals'
p1584
I1175
sS'secret'
p1585
I1416
sS'meeting'
p1586
I1531
sS'empty'
p1587
I29
sS'firm'
p1588
I2020
sS'lived'
p1589
I533
sS'partly'
p1590
I488
sS'assorted'
p1591
I1741
sS'else'
p1592
I879
sS'pricey'
p1593
I626
sS'understand'
p1594
I590
sS'jsut'
p1595
I1603
sS'overcompensate'
p1596
I1413
sS'prices'
p1597
I563
sS'bruschetta'
p1598
I1591
sS'look'
p1599
I246
sS'hostess'
p1600
I587
sS'frozen'
p1601
I825
sS'warrant'
p1602
I1544
sS'reliable'
p1603
I1922
sS'tip'
p1604
I68
sS'budget'
p1605
I899
sS'evaluated'
p1606
I1114
sS'broth'
p1607
I2236
sS'while'
p1608
I599
sS'accidently'
p1609
I849
sS'fun'
p1610
I136
sS'pound'
p1611
I1697
sS'teareyed'
p1612
I1616
sS'..all'
p1613
I2280
sS'incredible'
p1614
I200
sS'overlooked'
p1615
I891
sS'drawbacks'
p1616
I2053
sS'encountered'
p1617
I1900
sS'disappointing'
p1618
I1486
sS'itself'
p1619
I1251
sS'beautifully'
p1620
I762
sS'rib'
p1621
I1280
sS'cuisine'
p1622
I1104
sS'decor'
p1623
I193
sS'italy'
p1624
I1174
sS'shirt'
p1625
I326
sS'shorter'
p1626
I629
sS'grand'
p1627
I2015
sS'one-hour'
p1628
I544
sS'strips'
p1629
I491
sS'classmates'
p1630
I1971
sS'tupperware'
p1631
I1077
sS'cigar'
p1632
I1527
sS'husbands'
p1633
I1041
sS'moment'
p1634
I2308
sS'arrived'
p1635
I23
sS'infused'
p1636
I1322
sS'conveniently'
p1637
I1714
sS'recent'
p1638
I845
sS'early'
p1639
I1524
sS'overated'
p1640
I2300
sS'noodle'
p1641
I1165
sS'picky'
p1642
I2171
sS'anybody'
p1643
I1833
sS'person'
p1644
I983
sS'everythig'
p1645
I804
sS'spend'
p1646
I2273
sS'chosing'
p1647
I2017
sS'know'
p1648
I320
sS'desk'
p1649
I1512
sS'breathtaking'
p1650
I1267
sS'hutner'
p1651
I1972
sS'questions'
p1652
I2323
sS'roasted'
p1653
I904
sS'love'
p1654
I275
sS'taiwan'
p1655
I1812
sS'letting'
p1656
I311
sS'tables'
p1657
I1195
sS'$'
I406
sS'surprises'
p1658
I517
sS'workers'
p1659
I1008
sS'guaranteed'
p1660
I2098
sS'cuz'
p1661
I1286
sS'dhal'
p1662
I420
sS'location'
p1663
I1387
sS'shoestring'
p1664
I1952
sS'porridge'
p1665
I2135
sS'surprised'
p1666
I1546
sS'...'
p1667
I209
sS'customers'
p1668
I721
sS'daiquiries'
p1669
I1806
sS'lacking'
p1670
I2208
sS'big'
p1671
I508
sS'showing'
p1672
I322
sS'judgement'
p1673
I1789
sS'bit'
p1674
I213
sS'like'
p1675
I33
sS'all-u-can-eat'
p1676
I1475
sS'd'
I731
sS'cheesesticks'
p1677
I1434
sS'admittedly'
p1678
I677
sS'co.'
p1679
I1848
sS'popular'
p1680
I1079
sS'stylish'
p1681
I287
sS'stagnating'
p1682
I1586
sS'often'
p1683
I608
sS'absolutely'
p1684
I1009
sS'magnificent'
p1685
I632
sS'back'
p1686
I119
sS'mmmmm'
p1687
I1135
sS'trendy'
p1688
I2270
sS'candle'
p1689
I1549
sS"'ve"
p1690
I230
sS'ourselves'
p1691
I976
sS'sauces'
p1692
I2160
sS'godfather'
p1693
I1419
sS'delivered'
p1694
I482
sS'and/or'
p1695
I1223
sS'..very'
p1696
I2274
sS'risotto-yum'
p1697
I1815
sS'per'
p1698
I2211
sS'eater'
p1699
I2131
sS'either'
p1700
I1186
sS'amazin'
p1701
I1514
sS'be'
p1702
I7
sS'eating'
p1703
I1102
sS'step'
p1704
I455
sS'30+'
p1705
I1202
sS'stew'
p1706
I1112
sS'santa'
p1707
I1018
sS'chole'
p1708
I418
sS'major'
p1709
I2326
sS'by'
p1710
I273
sS'anything'
p1711
I1247
sS'brioche'
p1712
I1928
sS'delish'
p1713
I1957
sS'deserves'
p1714
I2024
sS'range'
p1715
I1055
sS'charm'
p1716
I681
sS'complimentary'
p1717
I42
sS'consequently'
p1718
I1689
sS'block'
p1719
I633
sS'clubhouse'
p1720
I1265
sS'into'
p1721
I390
sS'nonsense'
p1722
I871
sS'cheaply-priced'
p1723
I2271
sS'servers'
p1724
I1300
sS'appropriate'
p1725
I1529
sS'rolls'
p1726
I654
sS'impressed'
p1727
I1360
sS'lonk'
p1728
I702
sS'..'
p1729
I635
sS'tasting'
p1730
I1303
sS'long'
p1731
I648
sS'homemade'
p1732
I969
sS'heritage'
p1733
I2121
sS'forward'
p1734
I1180
sS':'
I551
sS'elsewhere'
p1735
I1700
sS'filet'
p1736
I1155
sS'downstairs'
p1737
I756
sS'relaxed'
p1738
I286
sS'buttery'
p1739
I363
sS'girlfriends'
p1740
I2313
sS'it..very'
p1741
I2339
sS'skip'
p1742
I1230
sS'fishy'
p1743
I360
sS'line'
p1744
I821
sS'faan'
p1745
I2167
sS'magnificant'
p1746
I1861
sS'requesting'
p1747
I2321
sS'fries'
p1748
I1720
sS'up'
p1749
I160
sS'us'
p1750
I22
sS'planet'
p1751
I640
sS"'re"
p1752
I426
sS'fried'
p1753
I529
sS'similar'
p1754
I1637
sS'called'
p1755
I1746
sS'yakitori'
p1756
I2252
sS'ordered'
p1757
I903
sS'inexpertly'
p1758
I1907
sS'chai'
p1759
I417
sS'associates'
p1760
I1532
sS'chat'
p1761
I1934
sS'home'
p1762
I294
sS'cafe'
p1763
I919
sS'rainy'
p1764
I2319
sS'lemon'
p1765
I1313
sS'thanks'
p1766
I2159
sS'saffron'
p1767
I1814
sS'excuses'
p1768
I1288
sS'points'
p1769
I1751
sS'semi-private'
p1770
I949
sS'b/c'
p1771
I2334
sS'manhattan'
p1772
I107
sS'nice'
p1773
I427
sS'draw'
p1774
I2164
sS'favourite'
p1775
I1304
sS'prepared'
p1776
I386
sS'cater'
p1777
I1307
sS'reservation'
p1778
I1345
sS'meals'
p1779
I511
sS'ago'
p1780
I1450
sS'e'
I1644
sS'practically'
p1781
I778
sS'outing'
p1782
I1540
sS'vow'
p1783
I1781
sS'svc'
p1784
I1496
sS'walked'
p1785
I121
sS'sty-town'
p1786
I1353
sS'2002'
p1787
I2061
sS'cooked'
p1788
I190
sS'beverage'
p1789
I1876
sS'uws'
p1790
I837
sS'fresh'
p1791
I365
sS'having'
p1792
I981
sS'once'
p1793
I454
sS'hampton'
p1794
I1846
sS'teodora'
p1795
I1221
sS'partial'
p1796
I580
sS'melts'
p1797
I1278
sS'enjoyable'
p1798
I1341
sS'desserts'
p1799
I474
sS'go'
p1800
I151
sS'exceptional'
p1801
I1430
sS'seemed'
p1802
I364
sS'daring'
p1803
I1987
sS'concerned'
p1804
I1609
sS'shanghai'
p1805
I1575
sS'young'
p1806
I558
sS'kababs'
p1807
I1463
sS'casserole'
p1808
I2150
sS'visitor'
p1809
I2370
sS'ambience'
p1810
I433
sS'snag'
p1811
I1652
sS'include'
p1812
I1502
sS'friendly'
p1813
I283
sS'waiters'
p1814
I1066
sS'stocked'
p1815
I768
sS'garden'
p1816
I668
sS'outside'
p1817
I1355
sS'dessert'
p1818
I453
sS'panting'
p1819
I2330
sS'mare'
p1820
I1776
sS'continued'
p1821
I1420
sS'wipe'
p1822
I2113
sS'timely'
p1823
I1086
sS'entire'
p1824
I1378
sS'asparagus'
p1825
I1587
sS'marinara/arrabiatta'
p1826
I1423
sS'varys'
p1827
I423
sS'try'
p1828
I292
sS'rip-off'
p1829
I1990
sS'concluded'
p1830
I1087
sS'redone'
p1831
I2204
sS'hyde'
p1832
I803
sS'uncomfortable'
p1833
I1518
sS'earth'
p1834
I2230
sS'fishiest'
p1835
I2174
sS'spaghetti'
p1836
I1538
sS'ues'
p1837
I571
sS'plays'
p1838
I2184
sS'rate'
p1839
I2144
sS'ambiance-'
p1840
I285
sS'delicous'
p1841
I1016
sS'dissapointing'
p1842
I422
sS'sangria'
p1843
I1126
sS'unhelpful'
p1844
I1852
sS'consistently'
p1845
I79
sS'indian'
p1846
I922
sS';'
I138
sS'refilled'
p1847
I410
sS'cozy'
p1848
I462
sS'degree'
p1849
I1937
sS'urchin'
p1850
I355
sS'subpar'
p1851
I2304
sS'growing'
p1852
I1811
sS'let'
p1853
I888
sS'others'
p1854
I1763
sS'ley'
p1855
I2244
sS'wine-by-the-glass'
p1856
I907
sS'vinegar'
p1857
I1405
sS'great'
p1858
I134
sS'33'
p1859
I1832
sS'weekday'
p1860
I1283
sS'popcorn'
p1861
I1842
sS'opinion'
p1862
I2031
sS'spices'
p1863
I2201
sS'makes'
p1864
I1388
sS'snobby'
p1865
I2287
sS'thats'
p1866
I755
sS'duck'
p1867
I87
sS'gimmick'
p1868
I2105
sS'use'
p1869
I499
sS'from'
p1870
I1
sS'remains'
p1871
I1578
sS'hudson'
p1872
I1867
sS'next'
p1873
I202
sS'few'
p1874
I1290
sS'doubt'
p1875
I205
sS'crab'
p1876
I1573
sS'eye-pleasing'
p1877
I947
sS'oily'
p1878
I589
sS'sort'
p1879
I1554
sS'1/2'
p1880
I1959
sS'comparison'
p1881
I1636
sS'started'
p1882
I1132
sS'impress'
p1883
I2137
sS'charming'
p1884
I1628
sS'folks'
p1885
I1850
sS'ashamed'
p1886
I1239
sS'pieces'
p1887
I2151
sS'starter'
p1888
I1301
sS'hints'
p1889
I1106
sS'customer'
p1890
I1564
sS'salad'
p1891
I838
sS'this'
p1892
I4
sS'ride'
p1893
I2035
sS'donut'
p1894
I2239
sS'anywhere'
p1895
I734
sS'obvious'
p1896
I1909
sS'thin'
p1897
I831
sS'praise'
p1898
I1773
sS'island'
p1899
I2111
sS'dhosas'
p1900
I419
sS'meet'
p1901
I2251
sS'closing'
p1902
I161
sS'aweful'
p1903
I2170
sS'spilled'
p1904
I2283
sS'reserved'
p1905
I737
sS'plate'
p1906
I1579
sS'off-set'
p1907
I2088
sS'high'
p1908
I1076
sS'something'
p1909
I1332
sS'bones'
p1910
I2179
sS'shrimp'
p1911
I264
sS'onions'
p1912
I2202
sS'native'
p1913
I532
sS'lamb'
p1914
I1402
sS'varied'
p1915
I1580
sS"did'nt"
p1916
I1693
sS'sit'
p1917
I733
sS'vibe'
p1918
I687
sS'six'
p1919
I1337
sS'williamsburg'
p1920
I1890
sS'fortunate'
p1921
I2340
sS'located'
p1922
I630
sS'varies'
p1923
I926
sS'instead'
p1924
I823
sS'establishment'
p1925
I1065
sS'stand'
p1926
I1750
sS'fare'
p1927
I554
sS'entree'
p1928
I1803
sS'blocks'
p1929
I1495
sS'attend'
p1930
I1261
sS'upstate'
p1931
I874
sS'efficiently'
p1932
I1070
sS'tomato'
p1933
I1951
sS'friendlier'
p1934
I1981
sS'light'
p1935
I2338
sS'counter'
p1936
I1830
sS'scoop'
p1937
I1892
sS'honestly'
p1938
I1471
sS'agenda'
p1939
I328
sS'fallback'
p1940
I1541
sS'counted'
p1941
I1317
sS'fastest'
p1942
I1734
sS'spreads'
p1943
I1875
sS'soggy'
p1944
I497
sS'ever-changing'
p1945
I515
sS'minnow'
p1946
I513
sS'move'
p1947
I961
sS'citysearch'
p1948
I1184
sS'waltzes'
p1949
I2358
sS'mojito'
p1950
I1673
sS'including'
p1951
I1680
sS'looks'
p1952
I1865
sS'perfect'
p1953
I279
sS'write'
p1954
I1596
sS'till'
p1955
I2192
sS'winning'
p1956
I853
sS'ls'
p1957
I1953
sS'pre-theatre'
p1958
I2095
sS'orange'
p1959
I1226
sS'holiday'
p1960
I2099
sS'crowds'
p1961
I1883
sS'jukebox'
p1962
I2183
sS'dal'
p1963
I1458
sS'dam'
p1964
I1462
sS'mention'
p1965
I1146
sS'hands'
p1966
I637
sS'guaranteeed'
p1967
I1414
sS'day'
p1968
I155
sS'old-fashioned'
p1969
I2052
sS'freshness'
p1970
I1252
sS'delightful'
p1971
I1139
sS'weather'
p1972
I1651
sS'overcharged'
p1973
I722
sS'truth'
p1974
I380
sS'flair'
p1975
I465
sS'watery'
p1976
I616
sS'crabmeat'
p1977
I2227
sS'doing'
p1978
I1069
sS'apologize'
p1979
I793
sS'ambiance'
p1980
I1268
sS'constitute'
p1981
I1215
sS'70+'
p1982
I1201
sS'our'
p1983
I50
sS'special'
p1984
I197
sS'out'
p1985
I95
sS'category'
p1986
I1205
sS"'"
I732
sS'entertainment'
p1987
I997
sS'suggestion..try'
p1988
I2063
sS'mediorce'
p1989
I927
sS'strokes'
p1990
I2186
sS'disapointed'
p1991
I1001
sS'pastrami-but'
p1992
I1698
sS'cause'
p1993
I1025
sS'red'
p1994
I952
sS'scampi'
p1995
I2107
sS'unda'
p1996
I2199
sS'wines'
p1997
I770
sS'thius'
p1998
I1372
sS'promptly'
p1999
I1754
sS'completely'
p2000
I954
sS'surely'
p2001
I1406
sS'york'
p2002
I185
sS'moody'
p2003
I2353
sS'scary'
p2004
I1898
sS'organic'
p2005
I1051
sS'hostile'
p2006
I2018
sS'could'
p2007
I229
sS'keep'
p2008
I646
sS'conversation'
p2009
I434
sS'explored'
p2010
I1777
sS'pudding'
p2011
I2229
sS'curtious'
p2012
I1244
sS'mortal'
p2013
I1422
sS'waitress'
p2014
I622
sS'apps'
p2015
I2232
sS'scene'
p2016
I2058
sS'owned'
p2017
I1666
sS'soothing'
p2018
I1792
sS'date'
p2019
I951
sS'choose'
p2020
I2006
sS'facie'
p2021
I291
sS'owner'
p2022
I1376
sS'reached'
p2023
I741
sS'blows'
p2024
I1241
sS'quality'
p2025
I401
sS'straight'
p2026
I2166
sS'prixe'
p2027
I1306
sS'management'
p2028
I2023
sS'sadly'
p2029
I2207
sS'ordering'
p2030
I1758
sS'system'
p2031
I1913
sS'kanish'
p2032
I2065
sS'their'
p2033
I219
sS'intermediate'
p2034
I2130
sS'impecible'
p2035
I1860
sS'wrapped'
p2036
I115
sS'pakistani'
p2037
I2165
sS'final'
p2038
I1788
sS'stomach'
p2039
I2226
sS'stars'
p2040
I1383
sS'exactly'
p2041
I752
sS'accompaniment'
p2042
I857
sS'haven'
p2043
I391
sS'varieties'
p2044
I2134
sS'loved'
p2045
I531
sS'confortable'
p2046
I2048
sS'prune'
p2047
I1327
sS'boring'
p2048
I1029
sS'bother'
p2049
I2070
sS'toons'
p2050
I1923
sS'loves'
p2051
I1373
sS'maybe'
p2052
I1613
sS'visited'
p2053
I716
sS'bet'
p2054
I675
sS'comfortable'
p2055
I1662
sS'try-state'
p2056
I1369
sS'have'
p2057
I72
sS'need'
p2058
I236
sS'dosas'
p2059
I1835
sS'apparently'
p2060
I1151
sS'dishes'
p2061
I51
sS'allergies'
p2062
I1308
sS'able'
p2063
I917
sS'impecable'
p2064
I387
sS'bagel'
p2065
I1004
sS'instance'
p2066
I1206
sS'which'
p2067
I254
sS'mille'
p2068
I1213
sS'unagi'
p2069
I2262
sS'regard'
p2070
I2075
sS'unless'
p2071
I502
sS'pastis'
p2072
I1116
sS'who'
p2073
I984
sS'complaints-'
p2074
I828
sS'class'
p2075
I1299
sS'patties'
p2076
I1992
sS'refreshing'
p2077
I1038
sS'parisian'
p2078
I460
sS'request'
p2079
I258
sS'martini'
p2080
I1958
sS'looked'
p2081
I342
sS'occasion'
p2082
I708
sS'fact'
p2083
I1629
sS'mmmmmmmm'
p2084
I1426
sS'atmosphere'
p2085
I557
sS'selection'
p2086
I682
sS'agreed'
p2087
I1775
sS'indoor'
p2088
I2219
sS'doughy'
p2089
I2189
sS'bring'
p2090
I2103
sS'planning'
p2091
I1442
sS'chicken'
p2092
I221
sS'longer'
p2093
I15
sS'staff'
p2094
I31
sS'based'
p2095
I1556
sS'('
I228
sS'winner'
p2096
I1592
sS'should'
p2097
I691
sS'beautification'
p2098
I1944
sS'combo'
p2099
I2223
sS'in-house'
p2100
I1965
sS'fabulous'
p2101
I1045
sS'means'
p2102
I1098
sS'wonderfull'
p2103
I1269
sS'overall'
p2104
I1131
sS'lucky'
p2105
I1939
sS'likely'
p2106
I2143
sS'joint'
p2107
I1204
sS'ones'
p2108
I1176
sS'perfection'
p2109
I191
sS'sassy'
p2110
I2196
sS'chips'
p2111
I1021
sS'ghetto'
p2112
I1910
sS'shu'
p2113
I140
sS'course'
p2114
I1034
sS'gras'
p2115
I91
sS'grat'
p2116
I801
sS'calling'
p2117
I1845
sS'lloovve'
p2118
I1534
sS'stuff'
p2119
I212
sS'she'
p2120
I117
sS'grab'
p2121
I2094
sS'skimpy'
p2122
I1836
sS'view'
p2123
I443
sS'bts'
p2124
I1956
sS'inovated'
p2125
I2045
sS'taiwanese'
p2126
I1808
sS'artsy'
p2127
I2363
sS'freeze'
p2128
I876
sS'vinegar-soaked'
p2129
I1482
sS'packed'
p2130
I686
sS'closes'
p2131
I1523
sS'literate'
p2132
I295
sS'superb'
p2133
I1157
sS'icecream'
p2134
I1988
sS'horrible'
p2135
I480
sS'neither'
p2136
I1766
sS'opening'
p2137
I1550
sS'amex'
p2138
I1311
sS'hits'
p2139
I1889
sS'above-average'
p2140
I466
sS'joke'
p2141
I2069
sS'la'
p2142
I2342
sS'etc'
p2143
I1113
sS'weehawken'
p2144
I440
sS'otherwise'
p2145
I2086
sS'vent'
p2146
I238
sS'gone'
p2147
I2146
sS'wall'
p2148
I1520
sS'ca'
p2149
I177
sS'myagi'
p2150
I1231
sS'arugula'
p2151
I1081
sS'laugh'
p2152
I980
sS'table'
p2153
I52
sS'nigiri'
p2154
I2310
sS'decent'
p2155
I297
sS'balsamic'
p2156
I1404
sS'thanked'
p2157
I1762
sS'zucchero'
p2158
I573
sS'grazie'
p2159
I1214
sS'parmesean'
p2160
I1399
sS'recognize'
p2161
I2292
sS'bbq'
p2162
I2132
sS'out-of-towners'
p2163
I1870
sS'togethers'
p2164
I2100
sS'am'
p2165
I162
sS'sausages'
p2166
I1726
sS'quibbles'
p2167
I2087
sS'kicks'
p2168
I1857
sS'brunch'
p2169
I1492
sS'general'
p2170
I1533
sS'present'
p2171
I1260
sS'intimidate'
p2172
I313
sS'plain'
p2173
I745
sS'vanilla'
p2174
I1961
sS'homey'
p2175
I1964
sS'value'
p2176
I405
sS'choices'
p2177
I650
sS'will'
p2178
I150
sS'ultra'
p2179
I1380
sS'almost'
p2180
I412
sS'cheescake'
p2181
I2145
sS'surprisingly'
p2182
I378
sS'helped'
p2183
I1757
sS'vt'
p2184
I700
sS'claimed'
p2185
I1183
sS'ave'
p2186
I882
sS'wks'
p2187
I1291
sS')'
I232
sS'vintage'
p2188
I324
sS'romance'
p2189
I1188
sS'parts'
p2190
I2036
sS'party'
p2191
I1395
sS'gets'
p2192
I463
sS'tomatoes'
p2193
I972
sS'difficult'
p2194
I1324
sS'caters'
p2195
I2231
sS'yon'
p2196
I1382
sS'setting/atmosphere'
p2197
I2161
sS'drink'
p2198
I1841
sS'upon'
p2199
I257
sS'overcrowded'
p2200
I1771
sS'fall-apart'
p2201
I1478
sS'impeccable'
p2202
I1140
sS"she's-way-cuter-than-me-that-b"
p2203
I1945
sS'pleasantly'
p2204
I1545
sS'off'
p2205
I323
sS'nevertheless'
p2206
I560
sS'ingredients'
p2207
I501
sS'well'
p2208
I106
sS'delictable'
p2209
I862
sS'thought'
p2210
I225
sS'1'
I2224
sS'raving'
p2211
I1296
sS'less'
p2212
I1059
sS'offensive'
p2213
I588
sS'cakes'
p2214
I1819
sS'somosas'
p2215
I416
sS'freshmess'
p2216
I936
sS'seats'
p2217
I1517
sS'topping'
p2218
I1843
sS'over-bearing'
p2219
I671
sS'diner-ish'
p2220
I1325
sS'smith'
p2221
I83
sS'battery'
p2222
I1807
sS'add'
p2223
I447
sS'forgivable'
p2224
I2030
sS'attractive'
p2225
I2205
sS'teriyaki'
p2226
I895
sS'match'
p2227
I1800
sS'haut'
p2228
I1103
sS'unpretensious'
p2229
I1723
sS'royalty'
p2230
I1660
sS'five'
p2231
I753
sS'leon'
p2232
I547
sS'.but'
p2233
I1365
sS'immediately'
p2234
I1782
sS'helpful'
p2235
I670
sS'onion'
p2236
I468
sS'sizes'
p2237
I1528
sS'vibrant'
p2238
I946
sS'roti'
p2239
I2198
sS'roth'
p2240
I1485
sS'become'
p2241
I1597
sS'soft'
p2242
I1005
sS'italian'
p2243
I1138
sS'because'
p2244
I169
sS'scared'
p2245
I986
sS'warmer'
p2246
I2147
sS'proper'
p2247
I1216
sS'kinds'
p2248
I1333
sS'hipsters'
p2249
I1150
sS'leaf'
p2250
I114
sS'esp'
p2251
I1497
sS'literally'
p2252
I1067
sS'avoid'
p2253
I69
sS'does'
p2254
I932
sS'bustling'
p2255
I1100
sS'truffle'
p2256
I1588
sS'?'
I1748
sS'pepper'
p2257
I1314
sS'noise'
p2258
I1394
sS'host'
p2259
I1530
sS'although'
p2260
I1033
sS'hospitable'
p2261
I1659
sS'pasta'
p2262
I1085
sS'noisy'
p2263
I913
sS'about'
p2264
I66
sS'rare'
p2265
I1733
sS'getting'
p2266
I594
sS'certainty'
p2267
I1938
sS'toppings'
p2268
I693
sS'sweat'
p2269
I2034
sS'introduced'
p2270
I1732
sS'pastries'
p2271
I1683
sS'own'
p2272
I843
sS'keeps'
p2273
I2214
sS'en'
p2274
I1424
sS'been'
p2275
I350
sS'additions'
p2276
I2371
sS'quickly'
p2277
I832
sS'bombay'
p2278
I1133
sS'foie'
p2279
I90
sS'yorkers'
p2280
I1264
sS'additional'
p2281
I692
sS'rushed'
p2282
I672
sS'vegetables'
p2283
I1391
sS'*'
I1948
sS'caviar'
p2284
I1658
sS'proprietor'
p2285
I1891
sS'spots'
p2286
I2209
sS'noticed'
p2287
I939
sS'biggest'
p2288
I2269
sS'buy'
p2289
I875
sS'shank'
p2290
I2008
sS'miraculously'
p2291
I457
sS'but'
p2292
I12
sS'delivery'
p2293
I1350
sS'basil'
p2294
I1820
sS'repeated'
p2295
I45
sS'lowered'
p2296
I2162
sS'bun'
p2297
I1688
sS'eat'
p2298
I105
sS'he'
p2299
I735
sS'count'
p2300
I2352
sS'mizu'
p2301
I719
sS'lovely'
p2302
I1093
sS'wise'
p2303
I2341
sS'places'
p2304
I973
sS'whether'
p2305
I1398
sS'wish'
p2306
I901
sS'yorkie'
p2307
I2218
sS'below'
p2308
I1030
sS'yuka'
p2309
I1535
sS'cake'
p2310
I452
sS'problem'
p2311
I944
sS'piece'
p2312
I658
sS'minutes'
p2313
I1632
sS'cordial'
p2314
I1755
sS'horrific'
p2315
I1823
sS'reservations'
p2316
I1057
sS'penny'
p2317
I396
sS'pie'
p2318
I836
sS'dearth'
p2319
I1854
sS'inn'
p2320
I1537
sS'penne'
p2321
I2177
sS'ew'
p2322
I2010
sS'recomend'
p2323
I2181
sS'complaint'
p2324
I1877
sS'compared'
p2325
I1385
sS"'ll"
p2326
I206
sS'mushroom'
p2327
I1124
sS'variety'
p2328
I643
sS'dressed'
p2329
I383
sS'boot'
p2330
I1364
sS'40'
p2331
I2309
sS'other'
p2332
I712
sS'incredibly'
p2333
I582
sS'repeat'
p2334
I720
sS'star'
p2335
I754
sS'shredded'
p2336
I487
sS'stay'
p2337
I800
sS'chance'
p2338
I1445
sS'kinda'
p2339
I421
sS'priced'
p2340
I750
sS'friends'
p2341
I332
sS'opened'
p2342
I667
sS'using'
p2343
I1560
sS'rule'
p2344
I873
sS'portion'
p2345
I524
sS'lives'
p2346
I1472
sS'baked'
p2347
I696
s.