(dp1
S'neutral'
p2
I16
sS'RESTAURANT#PRICES'
p3
I6
sS'AMBIENCE#GENERAL'
p4
I7
sS'SERVICE#GENERAL'
p5
I1
sS'LOCATION#GENERAL'
p6
I10
sS'is'
p7
I13
sS'negative'
p8
I15
sS'DRINKS#QUALITY'
p9
I11
sS'FOOD#QUALITY'
p10
I2
sS'postive'
p11
I14
sS'FOOD#PRICES'
p12
I9
sS'RESTAURANT#MISCELLANEOUS'
p13
I8
sS'RESTAURANT#GENERAL'
p14
I0
sS'FOOD#STYLE_OPTIONS'
p15
I3
sS'DRINKS#PRICES'
p16
I5
sS'DRINKS#STYLE_OPTIONS'
p17
I4
sS'FOOD#GENERAL'
p18
I12
s.