ccollections
OrderedDict
p1
((lp2
(lp3
S'eos'
p4
aI0
aa(lp5
S'NULL'
p6
aI1
aa(lp7
S'NP'
p8
aI2
aa(lp9
S'O'
aI3
aa(lp10
S'VP'
p11
aI4
aa(lp12
S'PP'
p13
aI5
aa(lp14
S'ADVP'
p15
aI6
aa(lp16
S'ADJP'
p17
aI7
aa(lp18
S'PRT'
p19
aI8
aa(lp20
S'SBAR'
p21
aI9
aa(lp22
S'CONJP'
p23
aI10
aa(lp24
S'LST'
p25
aI11
aa(lp26
S'INTJ'
p27
aI12
aa(lp28
S'UCP'
p29
aI13
aatRp30
.